target datalayout = "e-m:e-p270:32:32-p271:32:32-p272:64:64-i64:64-i128:128-f80:128-n8:16:32:64-S128"
target triple = "x86_64-pc-linux-gnu"

%struct.lean_object = type { i32, i32 }
%struct.lean_ctor_object = type { %struct.lean_object, [0 x ptr] }

; Function Attrs: inlinehint nounwind uwtable
define internal zeroext i1 @lean_is_st(ptr noundef %0) #0 {
  %2 = alloca ptr, align 8
  store ptr %0, ptr %2, align 8, !tbaa !8
  %3 = load ptr, ptr %2, align 8, !tbaa !8
  %4 = getelementptr inbounds nuw %struct.lean_object, ptr %3, i32 0, i32 0
  %5 = load i32, ptr %4, align 4, !tbaa !13
  %6 = icmp sgt i32 %5, 0
  ret i1 %6
}

; Function Attrs: inlinehint nounwind uwtable
define internal ptr @lean_to_ctor(ptr noundef %0) #0 {
  %2 = alloca ptr, align 8
  store ptr %0, ptr %2, align 8, !tbaa !8
  %3 = load ptr, ptr %2, align 8, !tbaa !8
  ret ptr %3
}

; Function Attrs: alwaysinline nounwind uwtable
define internal void @lean_dec_ref(ptr noundef %0) #1 {
  %2 = alloca ptr, align 8
  store ptr %0, ptr %2, align 8, !tbaa !8
  %3 = load ptr, ptr %2, align 8, !tbaa !8
  %4 = getelementptr inbounds nuw %struct.lean_object, ptr %3, i32 0, i32 0
  %5 = load i32, ptr %4, align 4, !tbaa !13
  %6 = icmp sgt i32 %5, 1
  %7 = zext i1 %6 to i32
  %8 = sext i32 %7 to i64
  %9 = call i64 @llvm.expect.i64(i64 %8, i64 1)
  %10 = icmp ne i64 %9, 0
  br i1 %10, label %11, label %16

11:                                               ; preds = %1
  %12 = load ptr, ptr %2, align 8, !tbaa !8
  %13 = getelementptr inbounds nuw %struct.lean_object, ptr %12, i32 0, i32 0
  %14 = load i32, ptr %13, align 4, !tbaa !13
  %15 = add i32 %14, -1
  store i32 %15, ptr %13, align 4, !tbaa !13
  br label %24

16:                                               ; preds = %1
  %17 = load ptr, ptr %2, align 8, !tbaa !8
  %18 = getelementptr inbounds nuw %struct.lean_object, ptr %17, i32 0, i32 0
  %19 = load i32, ptr %18, align 4, !tbaa !13
  %20 = icmp ne i32 %19, 0
  br i1 %20, label %21, label %23

21:                                               ; preds = %16
  %22 = load ptr, ptr %2, align 8, !tbaa !8
  call void @lean_dec_ref_cold(ptr noundef %22)
  br label %23

23:                                               ; preds = %21, %16
  br label %24

24:                                               ; preds = %23, %11
  ret void
}

; Function Attrs: inlinehint nounwind uwtable
define internal void @lean_inc_ref(ptr noundef %0) #0 {
  %2 = alloca ptr, align 8
  store ptr %0, ptr %2, align 8, !tbaa !8
  %3 = load ptr, ptr %2, align 8, !tbaa !8
  %4 = call zeroext i1 @lean_is_st(ptr noundef %3)
  %5 = zext i1 %4 to i64
  %6 = call i64 @llvm.expect.i64(i64 %5, i64 1)
  %7 = icmp ne i64 %6, 0
  br i1 %7, label %8, label %13

8:                                                ; preds = %1
  %9 = load ptr, ptr %2, align 8, !tbaa !8
  %10 = getelementptr inbounds nuw %struct.lean_object, ptr %9, i32 0, i32 0
  %11 = load i32, ptr %10, align 4, !tbaa !13
  %12 = add i32 %11, 1
  store i32 %12, ptr %10, align 4, !tbaa !13
  br label %21

13:                                               ; preds = %1
  %14 = load ptr, ptr %2, align 8, !tbaa !8
  %15 = getelementptr inbounds nuw %struct.lean_object, ptr %14, i32 0, i32 0
  %16 = load i32, ptr %15, align 4, !tbaa !13
  %17 = icmp ne i32 %16, 0
  br i1 %17, label %18, label %20

18:                                               ; preds = %13
  %19 = load ptr, ptr %2, align 8, !tbaa !8
  call void @lean_inc_ref_cold(ptr noundef %19)
  br label %20

20:                                               ; preds = %18, %13
  br label %21

21:                                               ; preds = %20, %8
  ret void
}

; Function Attrs: alwaysinline nounwind uwtable
define internal zeroext i1 @lean_is_scalar(ptr noundef %0) #1 {
  %2 = alloca ptr, align 8
  store ptr %0, ptr %2, align 8, !tbaa !8
  %3 = load ptr, ptr %2, align 8, !tbaa !8
  %4 = ptrtoint ptr %3 to i64
  %5 = and i64 %4, 1
  %6 = icmp eq i64 %5, 1
  ret i1 %6
}

; Function Attrs: inlinehint nounwind uwtable
define internal ptr @lean_ctor_obj_cptr(ptr noundef %0) #0 {
  %2 = alloca ptr, align 8
  store ptr %0, ptr %2, align 8, !tbaa !8
  %3 = load ptr, ptr %2, align 8, !tbaa !8
  %4 = call ptr @lean_to_ctor(ptr noundef %3)
  %5 = getelementptr inbounds nuw %struct.lean_ctor_object, ptr %4, i32 0, i32 1
  %6 = getelementptr inbounds [0 x ptr], ptr %5, i64 0, i64 0
  ret ptr %6
}

; Function Attrs: alwaysinline nounwind uwtable
define internal void @lean_dec(ptr noundef %0) #1 {
  %2 = alloca ptr, align 8
  store ptr %0, ptr %2, align 8, !tbaa !8
  %3 = load ptr, ptr %2, align 8, !tbaa !8
  %4 = call zeroext i1 @lean_is_scalar(ptr noundef %3)
  br i1 %4, label %7, label %5

5:                                                ; preds = %1
  %6 = load ptr, ptr %2, align 8, !tbaa !8
  call void @lean_dec_ref(ptr noundef %6)
  br label %7

7:                                                ; preds = %5, %1
  ret void
}

; Function Attrs: alwaysinline nounwind uwtable
define internal void @lean_inc(ptr noundef %0) #1 {
  %2 = alloca ptr, align 8
  store ptr %0, ptr %2, align 8, !tbaa !8
  %3 = load ptr, ptr %2, align 8, !tbaa !8
  %4 = call zeroext i1 @lean_is_scalar(ptr noundef %3)
  br i1 %4, label %7, label %5

5:                                                ; preds = %1
  %6 = load ptr, ptr %2, align 8, !tbaa !8
  call void @lean_inc_ref(ptr noundef %6)
  br label %7

7:                                                ; preds = %5, %1
  ret void
}

; Function Attrs: inlinehint nounwind uwtable
define internal ptr @lean_ctor_get(ptr noundef %0, i32 noundef %1) #0 {
  %3 = alloca ptr, align 8
  %4 = alloca i32, align 4
  store ptr %0, ptr %3, align 8, !tbaa !8
  store i32 %1, ptr %4, align 4, !tbaa !11
  %5 = load ptr, ptr %3, align 8, !tbaa !8
  %6 = call ptr @lean_ctor_obj_cptr(ptr noundef %5)
  %7 = load i32, ptr %4, align 4, !tbaa !11
  %8 = zext i32 %7 to i64
  %9 = getelementptr inbounds nuw ptr, ptr %6, i64 %8
  %10 = load ptr, ptr %9, align 8, !tbaa !8
  ret ptr %10
}

; Function Attrs: nounwind uwtable
define ptr @l___private_Lean_Meta_Tactic_Grind_Ctor_0__Lean_Meta_Grind_propagateInjEqs___lambda__2(ptr noundef %0, ptr noundef %1, ptr noundef %2, ptr noundef %3, ptr noundef %4, ptr noundef %5, ptr noundef %6, ptr noundef %7, ptr noundef %8, ptr noundef %9, ptr noundef %10, ptr noundef %11) #2 {
  %13 = alloca ptr, align 8
  %14 = alloca ptr, align 8
  %15 = alloca ptr, align 8
  %16 = alloca ptr, align 8
  %17 = alloca ptr, align 8
  %18 = alloca ptr, align 8
  %19 = alloca ptr, align 8
  %20 = alloca ptr, align 8
  %21 = alloca ptr, align 8
  %22 = alloca ptr, align 8
  %23 = alloca ptr, align 8
  %24 = alloca ptr, align 8
  %25 = alloca ptr, align 8
  %26 = alloca ptr, align 8
  %27 = alloca ptr, align 8
  %28 = alloca ptr, align 8
  %29 = alloca ptr, align 8
  %30 = alloca ptr, align 8
  %31 = alloca i8, align 1
  %32 = alloca ptr, align 8
  store ptr %0, ptr %13, align 8, !tbaa !8
  store ptr %1, ptr %14, align 8, !tbaa !8
  store ptr %2, ptr %15, align 8, !tbaa !8
  store ptr %3, ptr %16, align 8, !tbaa !8
  store ptr %4, ptr %17, align 8, !tbaa !8
  store ptr %5, ptr %18, align 8, !tbaa !8
  store ptr %6, ptr %19, align 8, !tbaa !8
  store ptr %7, ptr %20, align 8, !tbaa !8
  store ptr %8, ptr %21, align 8, !tbaa !8
  store ptr %9, ptr %22, align 8, !tbaa !8
  store ptr %10, ptr %23, align 8, !tbaa !8
  store ptr %11, ptr %24, align 8, !tbaa !8
  br label %33

33:                                               ; preds = %12
  call void @llvm.lifetime.start.p0(i64 8, ptr %25) #7
  call void @llvm.lifetime.start.p0(i64 8, ptr %26) #7
  call void @llvm.lifetime.start.p0(i64 8, ptr %27) #7
  call void @llvm.lifetime.start.p0(i64 8, ptr %28) #7
  call void @llvm.lifetime.start.p0(i64 8, ptr %29) #7
  call void @llvm.lifetime.start.p0(i64 8, ptr %30) #7
  call void @llvm.lifetime.start.p0(i64 1, ptr %31) #7
  call void @llvm.lifetime.start.p0(i64 8, ptr %32) #7
  %34 = load ptr, ptr %14, align 8, !tbaa !8
  %35 = load ptr, ptr %17, align 8, !tbaa !8
  %36 = load ptr, ptr %18, align 8, !tbaa !8
  %37 = load ptr, ptr %19, align 8, !tbaa !8
  %38 = load ptr, ptr %20, align 8, !tbaa !8
  %39 = load ptr, ptr %21, align 8, !tbaa !8
  %40 = load ptr, ptr %22, align 8, !tbaa !8
  %41 = load ptr, ptr %23, align 8, !tbaa !8
  %42 = load ptr, ptr %24, align 8, !tbaa !8
  %43 = call ptr @l_Lean_Meta_Grind_shareCommon(ptr noundef %34, ptr noundef %35, ptr noundef %36, ptr noundef %37, ptr noundef %38, ptr noundef %39, ptr noundef %40, ptr noundef %41, ptr noundef %42)
  store ptr %43, ptr %25, align 8, !tbaa !8
  %44 = load ptr, ptr %25, align 8, !tbaa !8
  %45 = call ptr @lean_ctor_get(ptr noundef %44, i32 noundef 0)
  store ptr %45, ptr %26, align 8, !tbaa !8
  %46 = load ptr, ptr %26, align 8, !tbaa !8
  call void @lean_inc(ptr noundef %46)
  %47 = load ptr, ptr %25, align 8, !tbaa !8
  %48 = call ptr @lean_ctor_get(ptr noundef %47, i32 noundef 1)
  store ptr %48, ptr %27, align 8, !tbaa !8
  %49 = load ptr, ptr %27, align 8, !tbaa !8
  call void @lean_inc(ptr noundef %49)
  %50 = load ptr, ptr %25, align 8, !tbaa !8
  call void @lean_dec(ptr noundef %50)
  %51 = load ptr, ptr %15, align 8, !tbaa !8
  %52 = load ptr, ptr %17, align 8, !tbaa !8
  %53 = load ptr, ptr %18, align 8, !tbaa !8
  %54 = load ptr, ptr %19, align 8, !tbaa !8
  %55 = load ptr, ptr %20, align 8, !tbaa !8
  %56 = load ptr, ptr %21, align 8, !tbaa !8
  %57 = load ptr, ptr %22, align 8, !tbaa !8
  %58 = load ptr, ptr %23, align 8, !tbaa !8
  %59 = load ptr, ptr %27, align 8, !tbaa !8
  %60 = call ptr @l_Lean_Meta_Grind_shareCommon(ptr noundef %51, ptr noundef %52, ptr noundef %53, ptr noundef %54, ptr noundef %55, ptr noundef %56, ptr noundef %57, ptr noundef %58, ptr noundef %59)
  store ptr %60, ptr %28, align 8, !tbaa !8
  %61 = load ptr, ptr %28, align 8, !tbaa !8
  %62 = call ptr @lean_ctor_get(ptr noundef %61, i32 noundef 0)
  store ptr %62, ptr %29, align 8, !tbaa !8
  %63 = load ptr, ptr %29, align 8, !tbaa !8
  call void @lean_inc(ptr noundef %63)
  %64 = load ptr, ptr %28, align 8, !tbaa !8
  %65 = call ptr @lean_ctor_get(ptr noundef %64, i32 noundef 1)
  store ptr %65, ptr %30, align 8, !tbaa !8
  %66 = load ptr, ptr %30, align 8, !tbaa !8
  call void @lean_inc(ptr noundef %66)
  %67 = load ptr, ptr %28, align 8, !tbaa !8
  call void @lean_dec(ptr noundef %67)
  store i8 0, ptr %31, align 1, !tbaa !10
  %68 = load ptr, ptr %26, align 8, !tbaa !8
  %69 = load ptr, ptr %29, align 8, !tbaa !8
  %70 = load ptr, ptr %13, align 8, !tbaa !8
  %71 = load i8, ptr %31, align 1, !tbaa !10
  %72 = load ptr, ptr %16, align 8, !tbaa !8
  %73 = load ptr, ptr %17, align 8, !tbaa !8
  %74 = load ptr, ptr %18, align 8, !tbaa !8
  %75 = load ptr, ptr %19, align 8, !tbaa !8
  %76 = load ptr, ptr %20, align 8, !tbaa !8
  %77 = load ptr, ptr %21, align 8, !tbaa !8
  %78 = load ptr, ptr %22, align 8, !tbaa !8
  %79 = load ptr, ptr %23, align 8, !tbaa !8
  %80 = load ptr, ptr %30, align 8, !tbaa !8
  %81 = call ptr @l_Lean_Meta_Grind_pushEqCore(ptr noundef %68, ptr noundef %69, ptr noundef %70, i8 noundef zeroext %71, ptr noundef %72, ptr noundef %73, ptr noundef %74, ptr noundef %75, ptr noundef %76, ptr noundef %77, ptr noundef %78, ptr noundef %79, ptr noundef %80)
  store ptr %81, ptr %32, align 8, !tbaa !8
  %82 = load ptr, ptr %32, align 8, !tbaa !8
  call void @llvm.lifetime.end.p0(i64 8, ptr %32) #7
  call void @llvm.lifetime.end.p0(i64 1, ptr %31) #7
  call void @llvm.lifetime.end.p0(i64 8, ptr %30) #7
  call void @llvm.lifetime.end.p0(i64 8, ptr %29) #7
  call void @llvm.lifetime.end.p0(i64 8, ptr %28) #7
  call void @llvm.lifetime.end.p0(i64 8, ptr %27) #7
  call void @llvm.lifetime.end.p0(i64 8, ptr %26) #7
  call void @llvm.lifetime.end.p0(i64 8, ptr %25) #7
  ret ptr %82
}